
a.out:     file format elf64-littleriscv


Disassembly of section .plt:

00000000000103c0 <_PROCEDURE_LINKAGE_TABLE_>:
   103c0:	00002397          	auipc	t2,0x2
   103c4:	41c30333          	sub	t1,t1,t3
   103c8:	c403be03          	ld	t3,-960(t2) # 12000 <__TMC_END__>
   103cc:	fd430313          	addi	t1,t1,-44
   103d0:	c4038293          	addi	t0,t2,-960
   103d4:	00135313          	srli	t1,t1,0x1
   103d8:	0082b283          	ld	t0,8(t0)
   103dc:	000e0067          	jr	t3 # 1a000 <__global_pointer$+0x7800>

00000000000103e0 <__libc_start_main@plt>:
   103e0:	00002e17          	auipc	t3,0x2
   103e4:	c30e3e03          	ld	t3,-976(t3) # 12010 <__libc_start_main@GLIBC_2.27>
   103e8:	000e0367          	jalr	t1,t3
   103ec:	00000013          	nop

Disassembly of section .text:

00000000000103f0 <_start>:
   103f0:	02e000ef          	jal	ra,1041e <load_gp>
   103f4:	87aa                	mv	a5,a0
   103f6:	00000517          	auipc	a0,0x0
   103fa:	09a50513          	addi	a0,a0,154 # 10490 <main>
   103fe:	6582                	ld	a1,0(sp)
   10400:	0030                	addi	a2,sp,8
   10402:	ff017113          	andi	sp,sp,-16
   10406:	00000697          	auipc	a3,0x0
   1040a:	0c468693          	addi	a3,a3,196 # 104ca <__libc_csu_init>
   1040e:	00000717          	auipc	a4,0x0
   10412:	11470713          	addi	a4,a4,276 # 10522 <__libc_csu_fini>
   10416:	880a                	mv	a6,sp
   10418:	fc9ff0ef          	jal	ra,103e0 <__libc_start_main@plt>
   1041c:	9002                	ebreak

000000000001041e <load_gp>:
   1041e:	00002197          	auipc	gp,0x2
   10422:	3e218193          	addi	gp,gp,994 # 12800 <__global_pointer$>
   10426:	8082                	ret
	...

000000000001042a <deregister_tm_clones>:
   1042a:	6549                	lui	a0,0x12
   1042c:	6749                	lui	a4,0x12
   1042e:	00050793          	mv	a5,a0
   10432:	00070713          	mv	a4,a4
   10436:	00f70863          	beq	a4,a5,10446 <deregister_tm_clones+0x1c>
   1043a:	00000793          	li	a5,0
   1043e:	c781                	beqz	a5,10446 <deregister_tm_clones+0x1c>
   10440:	00050513          	mv	a0,a0
   10444:	8782                	jr	a5
   10446:	8082                	ret

0000000000010448 <register_tm_clones>:
   10448:	6549                	lui	a0,0x12
   1044a:	00050793          	mv	a5,a0
   1044e:	6749                	lui	a4,0x12
   10450:	00070593          	mv	a1,a4
   10454:	8d9d                	sub	a1,a1,a5
   10456:	4035d793          	srai	a5,a1,0x3
   1045a:	91fd                	srli	a1,a1,0x3f
   1045c:	95be                	add	a1,a1,a5
   1045e:	8585                	srai	a1,a1,0x1
   10460:	c599                	beqz	a1,1046e <register_tm_clones+0x26>
   10462:	00000793          	li	a5,0
   10466:	c781                	beqz	a5,1046e <register_tm_clones+0x26>
   10468:	00050513          	mv	a0,a0
   1046c:	8782                	jr	a5
   1046e:	8082                	ret

0000000000010470 <__do_global_dtors_aux>:
   10470:	1141                	addi	sp,sp,-16
   10472:	e022                	sd	s0,0(sp)
   10474:	8301c783          	lbu	a5,-2000(gp) # 12030 <completed.0>
   10478:	e406                	sd	ra,8(sp)
   1047a:	e791                	bnez	a5,10486 <__do_global_dtors_aux+0x16>
   1047c:	fafff0ef          	jal	ra,1042a <deregister_tm_clones>
   10480:	4785                	li	a5,1
   10482:	82f18823          	sb	a5,-2000(gp) # 12030 <completed.0>
   10486:	60a2                	ld	ra,8(sp)
   10488:	6402                	ld	s0,0(sp)
   1048a:	0141                	addi	sp,sp,16
   1048c:	8082                	ret

000000000001048e <frame_dummy>:
   1048e:	bf6d                	j	10448 <register_tm_clones>

0000000000010490 <main>:
   10490:	7179                	addi	sp,sp,-48
   10492:	67c1                	lui	a5,0x10
   10494:	52878793          	addi	a5,a5,1320 # 10528 <__libc_csu_fini+0x6>
   10498:	638c                	ld	a1,0(a5)
   1049a:	6790                	ld	a2,8(a5)
   1049c:	6b94                	ld	a3,16(a5)
   1049e:	6f98                	ld	a4,24(a5)
   104a0:	739c                	ld	a5,32(a5)
   104a2:	e42e                	sd	a1,8(sp)
   104a4:	e832                	sd	a2,16(sp)
   104a6:	ec36                	sd	a3,24(sp)
   104a8:	f03a                	sd	a4,32(sp)
   104aa:	f43e                	sd	a5,40(sp)
   104ac:	003c                	addi	a5,sp,8
   104ae:	1810                	addi	a2,sp,48
   104b0:	4695                	li	a3,5
   104b2:	a021                	j	104ba <main+0x2a>
   104b4:	0791                	addi	a5,a5,4
   104b6:	00c78863          	beq	a5,a2,104c6 <main+0x36>
   104ba:	4398                	lw	a4,0(a5)
   104bc:	fee6dce3          	bge	a3,a4,104b4 <main+0x24>
   104c0:	2729                	addiw	a4,a4,10 # 1200a <__TMC_END__+0xa>
   104c2:	c398                	sw	a4,0(a5)
   104c4:	bfc5                	j	104b4 <main+0x24>
   104c6:	6145                	addi	sp,sp,48
   104c8:	8082                	ret

00000000000104ca <__libc_csu_init>:
   104ca:	7139                	addi	sp,sp,-64
   104cc:	f822                	sd	s0,48(sp)
   104ce:	f04a                	sd	s2,32(sp)
   104d0:	00002797          	auipc	a5,0x2
   104d4:	94878793          	addi	a5,a5,-1720 # 11e18 <__do_global_dtors_aux_fini_array_entry>
   104d8:	00002417          	auipc	s0,0x2
   104dc:	93840413          	addi	s0,s0,-1736 # 11e10 <__frame_dummy_init_array_entry>
   104e0:	fc06                	sd	ra,56(sp)
   104e2:	f426                	sd	s1,40(sp)
   104e4:	ec4e                	sd	s3,24(sp)
   104e6:	e852                	sd	s4,16(sp)
   104e8:	e456                	sd	s5,8(sp)
   104ea:	40878933          	sub	s2,a5,s0
   104ee:	02878163          	beq	a5,s0,10510 <__libc_csu_init+0x46>
   104f2:	89aa                	mv	s3,a0
   104f4:	8a2e                	mv	s4,a1
   104f6:	8ab2                	mv	s5,a2
   104f8:	40395913          	srai	s2,s2,0x3
   104fc:	4481                	li	s1,0
   104fe:	601c                	ld	a5,0(s0)
   10500:	8656                	mv	a2,s5
   10502:	85d2                	mv	a1,s4
   10504:	854e                	mv	a0,s3
   10506:	0485                	addi	s1,s1,1
   10508:	9782                	jalr	a5
   1050a:	0421                	addi	s0,s0,8
   1050c:	ff24e9e3          	bltu	s1,s2,104fe <__libc_csu_init+0x34>
   10510:	70e2                	ld	ra,56(sp)
   10512:	7442                	ld	s0,48(sp)
   10514:	74a2                	ld	s1,40(sp)
   10516:	7902                	ld	s2,32(sp)
   10518:	69e2                	ld	s3,24(sp)
   1051a:	6a42                	ld	s4,16(sp)
   1051c:	6aa2                	ld	s5,8(sp)
   1051e:	6121                	addi	sp,sp,64
   10520:	8082                	ret

0000000000010522 <__libc_csu_fini>:
   10522:	8082                	ret
