
bubble_sort.o:     file format elf64-littleriscv


Disassembly of section .text:

0000000000000000 <bubble_sort>:
   0:	715d                	addi	sp,sp,-80
   2:	e4a2                	sd	s0,72(sp)
   4:	0880                	addi	s0,sp,80
   6:	000007b7          	lui	a5,0x0
   a:	00078793          	mv	a5,a5
   e:	638c                	ld	a1,0(a5)
  10:	6790                	ld	a2,8(a5)
  12:	6b94                	ld	a3,16(a5)
  14:	6f98                	ld	a4,24(a5)
  16:	739c                	ld	a5,32(a5)
  18:	fab43c23          	sd	a1,-72(s0)
  1c:	fcc43023          	sd	a2,-64(s0)
  20:	fcd43423          	sd	a3,-56(s0)
  24:	fce43823          	sd	a4,-48(s0)
  28:	fcf43c23          	sd	a5,-40(s0)
  2c:	47a9                	li	a5,10
  2e:	fef42223          	sw	a5,-28(s0)
  32:	a065                	j	da <.L2>

0000000000000034 <.L6>:
  34:	fe042423          	sw	zero,-24(s0)
  38:	a8a5                	j	b0 <.L3>

000000000000003a <.L5>:
  3a:	fe842783          	lw	a5,-24(s0)
  3e:	078a                	slli	a5,a5,0x2
  40:	17c1                	addi	a5,a5,-16 # fffffffffffffff0 <.L2+0xffffffffffffff16>
  42:	97a2                	add	a5,a5,s0
  44:	fc87a703          	lw	a4,-56(a5)
  48:	fe842783          	lw	a5,-24(s0)
  4c:	2785                	addiw	a5,a5,1
  4e:	2781                	sext.w	a5,a5
  50:	078a                	slli	a5,a5,0x2
  52:	17c1                	addi	a5,a5,-16
  54:	97a2                	add	a5,a5,s0
  56:	fc87a783          	lw	a5,-56(a5)
  5a:	04e7d663          	bge	a5,a4,a6 <.L4>
  5e:	fe842783          	lw	a5,-24(s0)
  62:	078a                	slli	a5,a5,0x2
  64:	17c1                	addi	a5,a5,-16
  66:	97a2                	add	a5,a5,s0
  68:	fc87a783          	lw	a5,-56(a5)
  6c:	fef42023          	sw	a5,-32(s0)
  70:	fe842783          	lw	a5,-24(s0)
  74:	2785                	addiw	a5,a5,1
  76:	2781                	sext.w	a5,a5
  78:	078a                	slli	a5,a5,0x2
  7a:	17c1                	addi	a5,a5,-16
  7c:	97a2                	add	a5,a5,s0
  7e:	fc87a703          	lw	a4,-56(a5)
  82:	fe842783          	lw	a5,-24(s0)
  86:	078a                	slli	a5,a5,0x2
  88:	17c1                	addi	a5,a5,-16
  8a:	97a2                	add	a5,a5,s0
  8c:	fce7a423          	sw	a4,-56(a5)
  90:	fe842783          	lw	a5,-24(s0)
  94:	2785                	addiw	a5,a5,1
  96:	2781                	sext.w	a5,a5
  98:	078a                	slli	a5,a5,0x2
  9a:	17c1                	addi	a5,a5,-16
  9c:	97a2                	add	a5,a5,s0
  9e:	fe042703          	lw	a4,-32(s0)
  a2:	fce7a423          	sw	a4,-56(a5)

00000000000000a6 <.L4>:
  a6:	fe842783          	lw	a5,-24(s0)
  aa:	2785                	addiw	a5,a5,1
  ac:	fef42423          	sw	a5,-24(s0)

00000000000000b0 <.L3>:
  b0:	fe442783          	lw	a5,-28(s0)
  b4:	873e                	mv	a4,a5
  b6:	fec42783          	lw	a5,-20(s0)
  ba:	40f707bb          	subw	a5,a4,a5
  be:	2781                	sext.w	a5,a5
  c0:	37fd                	addiw	a5,a5,-1
  c2:	0007871b          	sext.w	a4,a5
  c6:	fe842783          	lw	a5,-24(s0)
  ca:	2781                	sext.w	a5,a5
  cc:	f6e7c7e3          	blt	a5,a4,3a <.L5>
  d0:	fec42783          	lw	a5,-20(s0)
  d4:	2785                	addiw	a5,a5,1
  d6:	fef42623          	sw	a5,-20(s0)

00000000000000da <.L2>:
  da:	fe442783          	lw	a5,-28(s0)
  de:	37fd                	addiw	a5,a5,-1
  e0:	0007871b          	sext.w	a4,a5
  e4:	fec42783          	lw	a5,-20(s0)
  e8:	2781                	sext.w	a5,a5
  ea:	f4e7c5e3          	blt	a5,a4,34 <.L6>
  ee:	0001                	nop
  f0:	0001                	nop
  f2:	6426                	ld	s0,72(sp)
  f4:	6161                	addi	sp,sp,80
  f6:	8082                	ret
