
for.o:     file format elf64-littleriscv


Disassembly of section .text:

0000000000000000 <mfor>:
   0:	7179                	addi	sp,sp,-48
   2:	f422                	sd	s0,40(sp)
   4:	1800                	addi	s0,sp,48
   6:	000007b7          	lui	a5,0x0
   a:	00078793          	mv	a5,a5
   e:	6398                	ld	a4,0(a5)
  10:	fce43823          	sd	a4,-48(s0)
  14:	679c                	ld	a5,8(a5)
  16:	fcf43c23          	sd	a5,-40(s0)
  1a:	fe042623          	sw	zero,-20(s0)
  1e:	4791                	li	a5,4
  20:	fef42223          	sw	a5,-28(s0)
  24:	fe042423          	sw	zero,-24(s0)
  28:	a099                	j	6e <.L2>

000000000000002a <.L3>:
  2a:	fe842783          	lw	a5,-24(s0)
  2e:	078a                	slli	a5,a5,0x2
  30:	17c1                	addi	a5,a5,-16 # fffffffffffffff0 <.L2+0xffffffffffffff82>
  32:	97a2                	add	a5,a5,s0
  34:	fe07a783          	lw	a5,-32(a5)
  38:	fec42703          	lw	a4,-20(s0)
  3c:	9fb9                	addw	a5,a5,a4
  3e:	fef42623          	sw	a5,-20(s0)
  42:	fe842783          	lw	a5,-24(s0)
  46:	078a                	slli	a5,a5,0x2
  48:	17c1                	addi	a5,a5,-16
  4a:	97a2                	add	a5,a5,s0
  4c:	fe07a783          	lw	a5,-32(a5)
  50:	2785                	addiw	a5,a5,1
  52:	0007871b          	sext.w	a4,a5
  56:	fe842783          	lw	a5,-24(s0)
  5a:	078a                	slli	a5,a5,0x2
  5c:	17c1                	addi	a5,a5,-16
  5e:	97a2                	add	a5,a5,s0
  60:	fee7a023          	sw	a4,-32(a5)
  64:	fe842783          	lw	a5,-24(s0)
  68:	2785                	addiw	a5,a5,1
  6a:	fef42423          	sw	a5,-24(s0)

000000000000006e <.L2>:
  6e:	fe842783          	lw	a5,-24(s0)
  72:	873e                	mv	a4,a5
  74:	fe442783          	lw	a5,-28(s0)
  78:	2701                	sext.w	a4,a4
  7a:	2781                	sext.w	a5,a5
  7c:	faf747e3          	blt	a4,a5,2a <.L3>
  80:	0001                	nop
  82:	0001                	nop
  84:	7422                	ld	s0,40(sp)
  86:	6145                	addi	sp,sp,48
  88:	8082                	ret
